; Function Attrs: mustprogress uwtable
define hidden void @_ZN8reslimit10dec_cancelEv(ptr noundef nonnull align 8 captures(none) dereferenceable(40) %0) local_unnamed_addr #3 align 2 personality ptr @__gxx_personality_v0 {
  %2 = load ptr, ptr @_ZL12g_rlimit_mux, align 8, !tbaa !3
  %3 = tail call noundef i32 @pthread_mutex_lock(ptr noundef nonnull align 8 dereferenceable(40) %2) #23
  %.not.i.i = icmp eq i32 %3, 0
  br i1 %.not.i.i, label %_ZNSt10lock_guardISt5mutexEC2ERS0_.exit, label %4

4:                                                ; preds = %1
  tail call void @_ZSt20__throw_system_errori(i32 noundef %3) #24
  unreachable

_ZNSt10lock_guardISt5mutexEC2ERS0_.exit:          ; preds = %1
  %5 = load atomic i32, ptr %0 seq_cst, align 8
  %.not = icmp eq i32 %5, 0
  br i1 %.not, label %9, label %6

6:                                                ; preds = %_ZNSt10lock_guardISt5mutexEC2ERS0_.exit
  %7 = load atomic i32, ptr %0 seq_cst, align 8
  %8 = add i32 %7, -1
  tail call void @_ZN8reslimit10set_cancelEj(ptr noundef nonnull align 8 dereferenceable(40) %0, i32 noundef %8)
  br label %9

9:                                                ; preds = %6, %_ZNSt10lock_guardISt5mutexEC2ERS0_.exit
  %10 = tail call noundef i32 @pthread_mutex_unlock(ptr noundef nonnull align 8 dereferenceable(40) %2) #23
  ret void
}